target datalayout = "e-m:e-p270:32:32-p271:32:32-p272:64:64-i64:64-i128:128-f80:128-n8:16:32:64-S128"
target triple = "x86_64-pc-linux-gnu"

%struct.pg_enc2name = type { ptr, i32 }
%struct.ForEachState = type { ptr, i32 }
%struct.ConvProcInfo = type { i32, i32, %struct.FmgrInfo, %struct.FmgrInfo }
%struct.FmgrInfo = type { ptr, i32, i16, i8, i8, i8, ptr, ptr, ptr }
%struct.List = type { i32, i32, i32, ptr, [0 x %union.ListCell] }
%union.ListCell = type { ptr }

@backend_startup_complete = internal global i8 0, align 1
@ConvProcList = internal global ptr null, align 8
@pending_client_encoding = internal global i32 0, align 4
@pg_enc2name_tbl = external constant [0 x %struct.pg_enc2name], align 8
@ClientEncoding = internal global ptr @pg_enc2name_tbl, align 8
@ToServerConvProc = internal global ptr null, align 8
@ToClientConvProc = internal global ptr null, align 8
@DatabaseEncoding = internal global ptr @pg_enc2name_tbl, align 8

; Function Attrs: nounwind uwtable
define dso_local i32 @GetDatabaseEncoding() #1 {
  %1 = load ptr, ptr @DatabaseEncoding, align 8
  %2 = getelementptr inbounds nuw %struct.pg_enc2name, ptr %1, i32 0, i32 1
  %3 = load i32, ptr %2, align 8
  ret i32 %3
}

; Function Attrs: nounwind uwtable
define dso_local i32 @SetClientEncoding(i32 noundef %0) #1 {
  %2 = alloca i32, align 4
  %3 = alloca i32, align 4
  %4 = alloca i32, align 4
  %5 = alloca i8, align 1
  %6 = alloca ptr, align 8
  %7 = alloca i32, align 4
  %8 = alloca %struct.ForEachState, align 8
  %9 = alloca ptr, align 8
  store i32 %0, ptr %3, align 4
  call void @llvm.lifetime.start.p0(i64 4, ptr %4) #9
  call void @llvm.lifetime.start.p0(i64 1, ptr %5) #9
  call void @llvm.lifetime.start.p0(i64 8, ptr %6) #9
  %10 = load i32, ptr %3, align 4
  %11 = icmp sge i32 %10, 0
  br i1 %11, label %12, label %15

12:                                               ; preds = %1
  %13 = load i32, ptr %3, align 4
  %14 = icmp slt i32 %13, 42
  br i1 %14, label %16, label %15

15:                                               ; preds = %12, %1
  store i32 -1, ptr %2, align 4
  store i32 1, ptr %7, align 4
  br label %111

16:                                               ; preds = %12
  %17 = load i8, ptr @backend_startup_complete, align 1, !range !4, !noundef !5
  %18 = trunc i8 %17 to i1
  br i1 %18, label %21, label %19

19:                                               ; preds = %16
  %20 = load i32, ptr %3, align 4
  store i32 %20, ptr @pending_client_encoding, align 4
  store i32 0, ptr %2, align 4
  store i32 1, ptr %7, align 4
  br label %111

21:                                               ; preds = %16
  %22 = call i32 @GetDatabaseEncoding()
  store i32 %22, ptr %4, align 4
  %23 = load i32, ptr %4, align 4
  %24 = load i32, ptr %3, align 4
  %25 = icmp eq i32 %23, %24
  br i1 %25, label %32, label %26

26:                                               ; preds = %21
  %27 = load i32, ptr %4, align 4
  %28 = icmp eq i32 %27, 0
  br i1 %28, label %32, label %29

29:                                               ; preds = %26
  %30 = load i32, ptr %3, align 4
  %31 = icmp eq i32 %30, 0
  br i1 %31, label %32, label %36

32:                                               ; preds = %29, %26, %21
  %33 = load i32, ptr %3, align 4
  %34 = sext i32 %33 to i64
  %35 = getelementptr inbounds [0 x %struct.pg_enc2name], ptr @pg_enc2name_tbl, i64 0, i64 %34
  store ptr %35, ptr @ClientEncoding, align 8
  store ptr null, ptr @ToServerConvProc, align 8
  store ptr null, ptr @ToClientConvProc, align 8
  store i32 0, ptr %2, align 4
  store i32 1, ptr %7, align 4
  br label %111

36:                                               ; preds = %29
  store i8 0, ptr %5, align 1
  call void @llvm.lifetime.start.p0(i64 16, ptr %8) #9
  %37 = getelementptr inbounds nuw %struct.ForEachState, ptr %8, i32 0, i32 0
  %38 = load ptr, ptr @ConvProcList, align 8
  store ptr %38, ptr %37, align 8
  %39 = getelementptr inbounds nuw %struct.ForEachState, ptr %8, i32 0, i32 1
  store i32 0, ptr %39, align 8
  %40 = getelementptr i8, ptr %8, i64 12
  call void @llvm.memset.p0.i64(ptr align 4 %40, i8 0, i64 4, i1 false)
  br label %41

41:                                               ; preds = %102, %36
  %42 = getelementptr inbounds nuw %struct.ForEachState, ptr %8, i32 0, i32 0
  %43 = load ptr, ptr %42, align 8
  %44 = icmp ne ptr %43, null
  br i1 %44, label %45, label %62

45:                                               ; preds = %41
  %46 = getelementptr inbounds nuw %struct.ForEachState, ptr %8, i32 0, i32 1
  %47 = load i32, ptr %46, align 8
  %48 = getelementptr inbounds nuw %struct.ForEachState, ptr %8, i32 0, i32 0
  %49 = load ptr, ptr %48, align 8
  %50 = getelementptr inbounds nuw %struct.List, ptr %49, i32 0, i32 1
  %51 = load i32, ptr %50, align 4
  %52 = icmp slt i32 %47, %51
  br i1 %52, label %53, label %62

53:                                               ; preds = %45
  %54 = getelementptr inbounds nuw %struct.ForEachState, ptr %8, i32 0, i32 0
  %55 = load ptr, ptr %54, align 8
  %56 = getelementptr inbounds nuw %struct.List, ptr %55, i32 0, i32 3
  %57 = load ptr, ptr %56, align 8
  %58 = getelementptr inbounds nuw %struct.ForEachState, ptr %8, i32 0, i32 1
  %59 = load i32, ptr %58, align 8
  %60 = sext i32 %59 to i64
  %61 = getelementptr inbounds %union.ListCell, ptr %57, i64 %60
  store ptr %61, ptr %6, align 8
  br label %63

62:                                               ; preds = %45, %41
  store ptr null, ptr %6, align 8
  br label %63

63:                                               ; preds = %62, %53
  %64 = phi i32 [ 1, %53 ], [ 0, %62 ]
  %65 = icmp ne i32 %64, 0
  br i1 %65, label %67, label %66

66:                                               ; preds = %63
  store i32 2, ptr %7, align 4
  call void @llvm.lifetime.end.p0(i64 16, ptr %8) #9
  br label %106

67:                                               ; preds = %63
  call void @llvm.lifetime.start.p0(i64 8, ptr %9) #9
  %68 = load ptr, ptr %6, align 8
  %69 = load ptr, ptr %68, align 8
  store ptr %69, ptr %9, align 8
  %70 = load ptr, ptr %9, align 8
  %71 = getelementptr inbounds nuw %struct.ConvProcInfo, ptr %70, i32 0, i32 0
  %72 = load i32, ptr %71, align 8
  %73 = load i32, ptr %4, align 4
  %74 = icmp eq i32 %72, %73
  br i1 %74, label %75, label %101

75:                                               ; preds = %67
  %76 = load ptr, ptr %9, align 8
  %77 = getelementptr inbounds nuw %struct.ConvProcInfo, ptr %76, i32 0, i32 1
  %78 = load i32, ptr %77, align 4
  %79 = load i32, ptr %3, align 4
  %80 = icmp eq i32 %78, %79
  br i1 %80, label %81, label %101

81:                                               ; preds = %75
  %82 = load i8, ptr %5, align 1, !range !4, !noundef !5
  %83 = trunc i8 %82 to i1
  br i1 %83, label %92, label %84

84:                                               ; preds = %81
  %85 = load i32, ptr %3, align 4
  %86 = sext i32 %85 to i64
  %87 = getelementptr inbounds [0 x %struct.pg_enc2name], ptr @pg_enc2name_tbl, i64 0, i64 %86
  store ptr %87, ptr @ClientEncoding, align 8
  %88 = load ptr, ptr %9, align 8
  %89 = getelementptr inbounds nuw %struct.ConvProcInfo, ptr %88, i32 0, i32 2
  store ptr %89, ptr @ToServerConvProc, align 8
  %90 = load ptr, ptr %9, align 8
  %91 = getelementptr inbounds nuw %struct.ConvProcInfo, ptr %90, i32 0, i32 3
  store ptr %91, ptr @ToClientConvProc, align 8
  store i8 1, ptr %5, align 1
  br label %100

92:                                               ; preds = %81
  %93 = load ptr, ptr @ConvProcList, align 8
  %94 = getelementptr inbounds nuw %struct.ForEachState, ptr %8, i32 0, i32 1
  %95 = load i32, ptr %94, align 8
  %96 = add i32 %95, -1
  store i32 %96, ptr %94, align 8
  %97 = call ptr @list_delete_nth_cell(ptr noundef %93, i32 noundef %95)
  %98 = getelementptr inbounds nuw %struct.ForEachState, ptr %8, i32 0, i32 0
  store ptr %97, ptr %98, align 8
  store ptr %97, ptr @ConvProcList, align 8
  %99 = load ptr, ptr %9, align 8
  call void @pfree(ptr noundef %99)
  br label %100

100:                                              ; preds = %92, %84
  br label %101

101:                                              ; preds = %100, %75, %67
  call void @llvm.lifetime.end.p0(i64 8, ptr %9) #9
  br label %102

102:                                              ; preds = %101
  %103 = getelementptr inbounds nuw %struct.ForEachState, ptr %8, i32 0, i32 1
  %104 = load i32, ptr %103, align 8
  %105 = add i32 %104, 1
  store i32 %105, ptr %103, align 8
  br label %41, !llvm.loop !8

106:                                              ; preds = %66
  %107 = load i8, ptr %5, align 1, !range !4, !noundef !5
  %108 = trunc i8 %107 to i1
  br i1 %108, label %109, label %110

109:                                              ; preds = %106
  store i32 0, ptr %2, align 4
  store i32 1, ptr %7, align 4
  br label %111

110:                                              ; preds = %106
  store i32 -1, ptr %2, align 4
  store i32 1, ptr %7, align 4
  br label %111

111:                                              ; preds = %110, %109, %32, %19, %15
  call void @llvm.lifetime.end.p0(i64 8, ptr %6) #9
  call void @llvm.lifetime.end.p0(i64 1, ptr %5) #9
  call void @llvm.lifetime.end.p0(i64 4, ptr %4) #9
  %112 = load i32, ptr %2, align 4
  ret i32 %112
}